; Function Attrs: mustprogress uwtable
define internal fastcc noundef i32 @_ZN17grpc_event_engine12experimental12_GLOBAL__N_122InitMaxAcceptQueueSizeEv() unnamed_addr #3 {
entry:
  %buf = alloca [64 x i8], align 16
  %end = alloca ptr, align 8
  %call = tail call noalias ptr @fopen(ptr noundef nonnull @.str.27, ptr noundef nonnull @.str.28)
  %cmp = icmp eq ptr %call, null
  br i1 %cmp, label %return, label %if.end

if.end:                                           ; preds = %entry
  %call1 = call ptr @fgets(ptr noundef nonnull %buf, i32 noundef 64, ptr noundef nonnull %call)
  %tobool.not = icmp eq ptr %call1, null
  br i1 %tobool.not, label %if.end14.thread, label %if.then2

if.then2:                                         ; preds = %if.end
  %call4 = call i64 @strtol(ptr noundef nonnull %buf, ptr noundef nonnull %end, i32 noundef 10) #18
  %0 = add i64 %call4, -1
  %or.cond = icmp ult i64 %0, 2147483647
  %1 = load ptr, ptr %end, align 8
  %tobool8 = icmp ne ptr %1, null
  %or.cond1 = select i1 %or.cond, i1 %tobool8, i1 false
  br i1 %or.cond1, label %land.lhs.true9, label %if.end14.thread

land.lhs.true9:                                   ; preds = %if.then2
  %2 = load i8, ptr %1, align 1
  %cmp10 = icmp eq i8 %2, 10
  %conv12 = trunc i64 %call4 to i32
  br i1 %cmp10, label %if.end14, label %if.end14.thread

if.end14.thread:                                  ; preds = %if.then2, %if.end, %land.lhs.true9
  %call159 = call i32 @fclose(ptr noundef nonnull %call)
  br label %return

if.end14:                                         ; preds = %land.lhs.true9
  %call15 = call i32 @fclose(ptr noundef nonnull %call)
  %cmp16 = icmp ult i32 %conv12, 100
  br i1 %cmp16, label %if.then17, label %return

if.then17:                                        ; preds = %if.end14
  call void (ptr, i32, i32, ptr, ...) @gpr_log(ptr noundef nonnull @.str, i32 noundef 123, i32 noundef 1, ptr noundef nonnull @.str.29, i32 noundef %conv12)
  br label %return

return:                                           ; preds = %if.end14.thread, %if.end14, %if.then17, %entry
  %retval.0 = phi i32 [ 4096, %entry ], [ %conv12, %if.then17 ], [ %conv12, %if.end14 ], [ 4096, %if.end14.thread ]
  ret i32 %retval.0
}